target datalayout = "e-m:e-p270:32:32-p271:32:32-p272:64:64-i64:64-i128:128-f80:128-n8:16:32:64-S128"
target triple = "x86_64-pc-linux-gnu"

%struct.JsonParser = type { i32, ptr, i32, ptr, ptr, ptr, double }
%struct.JSONObject_ = type { i32, %union.anon }
%union.anon = type { %struct.anon.0 }
%struct.anon.0 = type { ptr, ptr, i64 }
%struct.anon = type { ptr, i64 }

@.str.2 = private unnamed_addr constant [36 x i8] c"FATAL ERROR %s -> in %s @ in %s:%d \00", align 1
@.str.3 = private unnamed_addr constant [112 x i8] c"generated/home/dtcxzyw/WorkSpace/Projects/compilers/llvm-opt-benchmark/bench/c3c/c3c/src/compiler_tests/tests.c\00", align 1
@.str.34 = private unnamed_addr constant [4 x i8] c"123\00", align 1
@.str.56 = private unnamed_addr constant [21 x i8] c"Begin json testing.\0A\00", align 1
@.str.57 = private unnamed_addr constant [16 x i8] c"Expected number\00", align 1
@__func__.test_json = private unnamed_addr constant [10 x i8] c"test_json\00", align 1
@.str.58 = private unnamed_addr constant [22 x i8] c"Expected number match\00", align 1
@.str.59 = private unnamed_addr constant [14 x i8] c"[123, 23.123]\00", align 1
@.str.60 = private unnamed_addr constant [15 x i8] c"Expected array\00", align 1
@.str.61 = private unnamed_addr constant [20 x i8] c"Expected 2 elements\00", align 1
@.str.62 = private unnamed_addr constant [19 x i8] c"Matching element 1\00", align 1
@.str.63 = private unnamed_addr constant [25 x i8] c"[\22hello\\nworld\\t.\22, 123]\00", align 1
@.str.64 = private unnamed_addr constant [19 x i8] c"Matching element 0\00", align 1
@.str.65 = private unnamed_addr constant [14 x i8] c"hello\0Aworld\09.\00", align 1
@.str.66 = private unnamed_addr constant [19 x i8] c"Mismatching string\00", align 1

; Function Attrs: nounwind uwtable
define internal void @test_json() #0 {
  %1 = alloca %struct.JsonParser, align 8
  %2 = alloca ptr, align 8
  %3 = alloca ptr, align 8
  %4 = call i32 (ptr, ...) @printf(ptr noundef @.str.56)
  call void @json_init_string(ptr noundef %1, ptr noundef @.str.34, ptr noundef @malloc)
  %5 = call ptr @json_parse(ptr noundef %1)
  store ptr %5, ptr %2, align 8
  br label %6

6:                                                ; preds = %14, %0
  %7 = load ptr, ptr %2, align 8
  %8 = getelementptr inbounds %struct.JSONObject_, ptr %7, i32 0, i32 0
  %9 = load i32, ptr %8, align 8
  %10 = icmp eq i32 %9, 3
  %11 = xor i1 %10, true
  br i1 %11, label %12, label %15

12:                                               ; preds = %6
  br label %13

13:                                               ; preds = %12
  call void (ptr, ...) @error_exit(ptr noundef @.str.2, ptr noundef @.str.57, ptr noundef @__func__.test_json, ptr noundef @.str.3, i32 noundef 172) #7
  unreachable

14:                                               ; No predecessors!
  br label %6, !llvm.loop !75

15:                                               ; preds = %6
  br label %16

16:                                               ; preds = %24, %15
  %17 = load ptr, ptr %2, align 8
  %18 = getelementptr inbounds %struct.JSONObject_, ptr %17, i32 0, i32 1
  %19 = load double, ptr %18, align 8
  %20 = fcmp oeq double %19, 1.230000e+02
  %21 = xor i1 %20, true
  br i1 %21, label %22, label %25

22:                                               ; preds = %16
  br label %23

23:                                               ; preds = %22
  call void (ptr, ...) @error_exit(ptr noundef @.str.2, ptr noundef @.str.58, ptr noundef @__func__.test_json, ptr noundef @.str.3, i32 noundef 173) #7
  unreachable

24:                                               ; No predecessors!
  br label %16, !llvm.loop !76

25:                                               ; preds = %16
  call void @json_init_string(ptr noundef %1, ptr noundef @.str.59, ptr noundef @malloc)
  %26 = call ptr @json_parse(ptr noundef %1)
  store ptr %26, ptr %3, align 8
  br label %27

27:                                               ; preds = %35, %25
  %28 = load ptr, ptr %3, align 8
  %29 = getelementptr inbounds %struct.JSONObject_, ptr %28, i32 0, i32 0
  %30 = load i32, ptr %29, align 8
  %31 = icmp eq i32 %30, 2
  %32 = xor i1 %31, true
  br i1 %32, label %33, label %36

33:                                               ; preds = %27
  br label %34

34:                                               ; preds = %33
  call void (ptr, ...) @error_exit(ptr noundef @.str.2, ptr noundef @.str.60, ptr noundef @__func__.test_json, ptr noundef @.str.3, i32 noundef 176) #7
  unreachable

35:                                               ; No predecessors!
  br label %27, !llvm.loop !77

36:                                               ; preds = %27
  br label %37

37:                                               ; preds = %46, %36
  %38 = load ptr, ptr %3, align 8
  %39 = getelementptr inbounds %struct.JSONObject_, ptr %38, i32 0, i32 1
  %40 = getelementptr inbounds %struct.anon, ptr %39, i32 0, i32 1
  %41 = load i64, ptr %40, align 8
  %42 = icmp eq i64 %41, 2
  %43 = xor i1 %42, true
  br i1 %43, label %44, label %47

44:                                               ; preds = %37
  br label %45

45:                                               ; preds = %44
  call void (ptr, ...) @error_exit(ptr noundef @.str.2, ptr noundef @.str.61, ptr noundef @__func__.test_json, ptr noundef @.str.3, i32 noundef 177) #7
  unreachable

46:                                               ; No predecessors!
  br label %37, !llvm.loop !78

47:                                               ; preds = %37
  br label %48

48:                                               ; preds = %61, %47
  %49 = load ptr, ptr %3, align 8
  %50 = getelementptr inbounds %struct.JSONObject_, ptr %49, i32 0, i32 1
  %51 = getelementptr inbounds %struct.anon, ptr %50, i32 0, i32 0
  %52 = load ptr, ptr %51, align 8
  %53 = getelementptr inbounds ptr, ptr %52, i64 0
  %54 = load ptr, ptr %53, align 8
  %55 = getelementptr inbounds %struct.JSONObject_, ptr %54, i32 0, i32 1
  %56 = load double, ptr %55, align 8
  %57 = fcmp oeq double %56, 1.230000e+02
  %58 = xor i1 %57, true
  br i1 %58, label %59, label %62

59:                                               ; preds = %48
  br label %60

60:                                               ; preds = %59
  call void (ptr, ...) @error_exit(ptr noundef @.str.2, ptr noundef @.str.62, ptr noundef @__func__.test_json, ptr noundef @.str.3, i32 noundef 178) #7
  unreachable

61:                                               ; No predecessors!
  br label %48, !llvm.loop !79

62:                                               ; preds = %48
  br label %63

63:                                               ; preds = %76, %62
  %64 = load ptr, ptr %3, align 8
  %65 = getelementptr inbounds %struct.JSONObject_, ptr %64, i32 0, i32 1
  %66 = getelementptr inbounds %struct.anon, ptr %65, i32 0, i32 0
  %67 = load ptr, ptr %66, align 8
  %68 = getelementptr inbounds ptr, ptr %67, i64 1
  %69 = load ptr, ptr %68, align 8
  %70 = getelementptr inbounds %struct.JSONObject_, ptr %69, i32 0, i32 1
  %71 = load double, ptr %70, align 8
  %72 = fcmp oeq double %71, 2.312300e+01
  %73 = xor i1 %72, true
  br i1 %73, label %74, label %77

74:                                               ; preds = %63
  br label %75

75:                                               ; preds = %74
  call void (ptr, ...) @error_exit(ptr noundef @.str.2, ptr noundef @.str.62, ptr noundef @__func__.test_json, ptr noundef @.str.3, i32 noundef 179) #7
  unreachable

76:                                               ; No predecessors!
  br label %63, !llvm.loop !80

77:                                               ; preds = %63
  call void @json_init_string(ptr noundef %1, ptr noundef @.str.63, ptr noundef @malloc)
  %78 = call ptr @json_parse(ptr noundef %1)
  store ptr %78, ptr %3, align 8
  br label %79

79:                                               ; preds = %87, %77
  %80 = load ptr, ptr %3, align 8
  %81 = getelementptr inbounds %struct.JSONObject_, ptr %80, i32 0, i32 0
  %82 = load i32, ptr %81, align 8
  %83 = icmp eq i32 %82, 2
  %84 = xor i1 %83, true
  br i1 %84, label %85, label %88

85:                                               ; preds = %79
  br label %86

86:                                               ; preds = %85
  call void (ptr, ...) @error_exit(ptr noundef @.str.2, ptr noundef @.str.60, ptr noundef @__func__.test_json, ptr noundef @.str.3, i32 noundef 182) #7
  unreachable

87:                                               ; No predecessors!
  br label %79, !llvm.loop !81

88:                                               ; preds = %79
  br label %89

89:                                               ; preds = %98, %88
  %90 = load ptr, ptr %3, align 8
  %91 = getelementptr inbounds %struct.JSONObject_, ptr %90, i32 0, i32 1
  %92 = getelementptr inbounds %struct.anon, ptr %91, i32 0, i32 1
  %93 = load i64, ptr %92, align 8
  %94 = icmp eq i64 %93, 2
  %95 = xor i1 %94, true
  br i1 %95, label %96, label %99

96:                                               ; preds = %89
  br label %97

97:                                               ; preds = %96
  call void (ptr, ...) @error_exit(ptr noundef @.str.2, ptr noundef @.str.61, ptr noundef @__func__.test_json, ptr noundef @.str.3, i32 noundef 183) #7
  unreachable

98:                                               ; No predecessors!
  br label %89, !llvm.loop !82

99:                                               ; preds = %89
  br label %100

100:                                              ; preds = %113, %99
  %101 = load ptr, ptr %3, align 8
  %102 = getelementptr inbounds %struct.JSONObject_, ptr %101, i32 0, i32 1
  %103 = getelementptr inbounds %struct.anon, ptr %102, i32 0, i32 0
  %104 = load ptr, ptr %103, align 8
  %105 = getelementptr inbounds ptr, ptr %104, i64 1
  %106 = load ptr, ptr %105, align 8
  %107 = getelementptr inbounds %struct.JSONObject_, ptr %106, i32 0, i32 1
  %108 = load double, ptr %107, align 8
  %109 = fcmp oeq double %108, 1.230000e+02
  %110 = xor i1 %109, true
  br i1 %110, label %111, label %114

111:                                              ; preds = %100
  br label %112

112:                                              ; preds = %111
  call void (ptr, ...) @error_exit(ptr noundef @.str.2, ptr noundef @.str.62, ptr noundef @__func__.test_json, ptr noundef @.str.3, i32 noundef 184) #7
  unreachable

113:                                              ; No predecessors!
  br label %100, !llvm.loop !83

114:                                              ; preds = %100
  br label %115

115:                                              ; preds = %128, %114
  %116 = load ptr, ptr %3, align 8
  %117 = getelementptr inbounds %struct.JSONObject_, ptr %116, i32 0, i32 1
  %118 = getelementptr inbounds %struct.anon, ptr %117, i32 0, i32 0
  %119 = load ptr, ptr %118, align 8
  %120 = getelementptr inbounds ptr, ptr %119, i64 0
  %121 = load ptr, ptr %120, align 8
  %122 = getelementptr inbounds %struct.JSONObject_, ptr %121, i32 0, i32 0
  %123 = load i32, ptr %122, align 8
  %124 = icmp eq i32 %123, 1
  %125 = xor i1 %124, true
  br i1 %125, label %126, label %129

126:                                              ; preds = %115
  br label %127

127:                                              ; preds = %126
  call void (ptr, ...) @error_exit(ptr noundef @.str.2, ptr noundef @.str.64, ptr noundef @__func__.test_json, ptr noundef @.str.3, i32 noundef 185) #7
  unreachable

128:                                              ; No predecessors!
  br label %115, !llvm.loop !84

129:                                              ; preds = %115
  br label %130

130:                                              ; preds = %144, %129
  %131 = load ptr, ptr %3, align 8
  %132 = getelementptr inbounds %struct.JSONObject_, ptr %131, i32 0, i32 1
  %133 = getelementptr inbounds %struct.anon, ptr %132, i32 0, i32 0
  %134 = load ptr, ptr %133, align 8
  %135 = getelementptr inbounds ptr, ptr %134, i64 0
  %136 = load ptr, ptr %135, align 8
  %137 = getelementptr inbounds %struct.JSONObject_, ptr %136, i32 0, i32 1
  %138 = load ptr, ptr %137, align 8
  %139 = call i32 @strcmp(ptr noundef %138, ptr noundef @.str.65) #8
  %140 = icmp eq i32 %139, 0
  %141 = xor i1 %140, true
  br i1 %141, label %142, label %145

142:                                              ; preds = %130
  br label %143

143:                                              ; preds = %142
  call void (ptr, ...) @error_exit(ptr noundef @.str.2, ptr noundef @.str.66, ptr noundef @__func__.test_json, ptr noundef @.str.3, i32 noundef 186) #7
  unreachable

144:                                              ; No predecessors!
  br label %130, !llvm.loop !85

145:                                              ; preds = %130
  ret void
}