; Function Attrs: nounwind uwtable
define internal fastcc void @test_json() unnamed_addr #1 {
  %1 = alloca %struct.JsonParser, align 8
  %puts = tail call i32 @puts(ptr nonnull dereferenceable(1) @str.14)
  call void @json_init_string(ptr noundef nonnull %1, ptr noundef nonnull @.str.34, ptr noundef nonnull @malloc) #9
  %2 = call ptr @json_parse(ptr noundef nonnull %1) #9
  %3 = load i32, ptr %2, align 8
  %.not = icmp eq i32 %3, 3
  br i1 %.not, label %5, label %4

4:                                                ; preds = %0
  call void (ptr, ...) @error_exit(ptr noundef nonnull @.str.2, ptr noundef nonnull @.str.57, ptr noundef nonnull @__func__.test_json, ptr noundef nonnull @.str.3, i32 noundef 172) #10
  unreachable

5:                                                ; preds = %0
  %6 = getelementptr inbounds i8, ptr %2, i64 8
  %7 = load double, ptr %6, align 8
  %8 = fcmp une double %7, 1.230000e+02
  br i1 %8, label %9, label %10

9:                                                ; preds = %5
  call void (ptr, ...) @error_exit(ptr noundef nonnull @.str.2, ptr noundef nonnull @.str.58, ptr noundef nonnull @__func__.test_json, ptr noundef nonnull @.str.3, i32 noundef 173) #10
  unreachable

10:                                               ; preds = %5
  call void @json_init_string(ptr noundef nonnull %1, ptr noundef nonnull @.str.59, ptr noundef nonnull @malloc) #9
  %11 = call ptr @json_parse(ptr noundef nonnull %1) #9
  %12 = load i32, ptr %11, align 8
  %.not11 = icmp eq i32 %12, 2
  br i1 %.not11, label %14, label %13

13:                                               ; preds = %10
  call void (ptr, ...) @error_exit(ptr noundef nonnull @.str.2, ptr noundef nonnull @.str.60, ptr noundef nonnull @__func__.test_json, ptr noundef nonnull @.str.3, i32 noundef 176) #10
  unreachable

14:                                               ; preds = %10
  %15 = getelementptr inbounds i8, ptr %11, i64 16
  %16 = load i64, ptr %15, align 8
  %.not12 = icmp eq i64 %16, 2
  br i1 %.not12, label %18, label %17

17:                                               ; preds = %14
  call void (ptr, ...) @error_exit(ptr noundef nonnull @.str.2, ptr noundef nonnull @.str.61, ptr noundef nonnull @__func__.test_json, ptr noundef nonnull @.str.3, i32 noundef 177) #10
  unreachable

18:                                               ; preds = %14
  %19 = getelementptr inbounds i8, ptr %11, i64 8
  %20 = load ptr, ptr %19, align 8
  %21 = load ptr, ptr %20, align 8
  %22 = getelementptr inbounds i8, ptr %21, i64 8
  %23 = load double, ptr %22, align 8
  %24 = fcmp une double %23, 1.230000e+02
  br i1 %24, label %25, label %26

25:                                               ; preds = %18
  call void (ptr, ...) @error_exit(ptr noundef nonnull @.str.2, ptr noundef nonnull @.str.62, ptr noundef nonnull @__func__.test_json, ptr noundef nonnull @.str.3, i32 noundef 178) #10
  unreachable

26:                                               ; preds = %18
  %27 = getelementptr inbounds i8, ptr %20, i64 8
  %28 = load ptr, ptr %27, align 8
  %29 = getelementptr inbounds i8, ptr %28, i64 8
  %30 = load double, ptr %29, align 8
  %31 = fcmp une double %30, 2.312300e+01
  br i1 %31, label %32, label %33

32:                                               ; preds = %26
  call void (ptr, ...) @error_exit(ptr noundef nonnull @.str.2, ptr noundef nonnull @.str.62, ptr noundef nonnull @__func__.test_json, ptr noundef nonnull @.str.3, i32 noundef 179) #10
  unreachable

33:                                               ; preds = %26
  call void @json_init_string(ptr noundef nonnull %1, ptr noundef nonnull @.str.63, ptr noundef nonnull @malloc) #9
  %34 = call ptr @json_parse(ptr noundef nonnull %1) #9
  %35 = load i32, ptr %34, align 8
  %.not13 = icmp eq i32 %35, 2
  br i1 %.not13, label %37, label %36

36:                                               ; preds = %33
  call void (ptr, ...) @error_exit(ptr noundef nonnull @.str.2, ptr noundef nonnull @.str.60, ptr noundef nonnull @__func__.test_json, ptr noundef nonnull @.str.3, i32 noundef 182) #10
  unreachable

37:                                               ; preds = %33
  %38 = getelementptr inbounds i8, ptr %34, i64 16
  %39 = load i64, ptr %38, align 8
  %.not14 = icmp eq i64 %39, 2
  br i1 %.not14, label %41, label %40

40:                                               ; preds = %37
  call void (ptr, ...) @error_exit(ptr noundef nonnull @.str.2, ptr noundef nonnull @.str.61, ptr noundef nonnull @__func__.test_json, ptr noundef nonnull @.str.3, i32 noundef 183) #10
  unreachable

41:                                               ; preds = %37
  %42 = getelementptr inbounds i8, ptr %34, i64 8
  %43 = load ptr, ptr %42, align 8
  %44 = getelementptr inbounds i8, ptr %43, i64 8
  %45 = load ptr, ptr %44, align 8
  %46 = getelementptr inbounds i8, ptr %45, i64 8
  %47 = load double, ptr %46, align 8
  %48 = fcmp une double %47, 1.230000e+02
  br i1 %48, label %49, label %50

49:                                               ; preds = %41
  call void (ptr, ...) @error_exit(ptr noundef nonnull @.str.2, ptr noundef nonnull @.str.62, ptr noundef nonnull @__func__.test_json, ptr noundef nonnull @.str.3, i32 noundef 184) #10
  unreachable

50:                                               ; preds = %41
  %51 = load ptr, ptr %43, align 8
  %52 = load i32, ptr %51, align 8
  %.not15 = icmp eq i32 %52, 1
  br i1 %.not15, label %54, label %53

53:                                               ; preds = %50
  call void (ptr, ...) @error_exit(ptr noundef nonnull @.str.2, ptr noundef nonnull @.str.64, ptr noundef nonnull @__func__.test_json, ptr noundef nonnull @.str.3, i32 noundef 185) #10
  unreachable

54:                                               ; preds = %50
  %55 = getelementptr inbounds i8, ptr %51, i64 8
  %56 = load ptr, ptr %55, align 8
  %57 = call i32 @strcmp(ptr noundef nonnull dereferenceable(1) %56, ptr noundef nonnull dereferenceable(14) @.str.65) #11
  %.not16 = icmp eq i32 %57, 0
  br i1 %.not16, label %59, label %58

58:                                               ; preds = %54
  call void (ptr, ...) @error_exit(ptr noundef nonnull @.str.2, ptr noundef nonnull @.str.66, ptr noundef nonnull @__func__.test_json, ptr noundef nonnull @.str.3, i32 noundef 186) #10
  unreachable

59:                                               ; preds = %54
  ret void
}